MPASM 5.68  /HOME/MATTEO/SCRIVANIA/PIC16-SER   12-15-2016  10:06:19         PAGE  1


LOC  OBJECT CODE     LINE SOURCE TEXT
  VALUE

                      00001 #include <p16f887.inc>
                      00001         LIST
                      00002 
                      00003 ;==========================================================================
                      00004 ; Build date : May 15 2016
                      00005 ;  MPASM PIC16F887 processor include
                      00006 ; 
                      00007 ;  (c) Copyright 1999-2016 Microchip Technology, All rights reserved
                      00008 ;==========================================================================
                      00009 
                      00810         LIST
                      00002     LIST p=16f887
                      00003 
                      00004 RES_VECT CODE 0x0000            ; processor reset vector
0000   2???           00005     GOTO START                  ; go to beginning of program
                      00006   
                      00007 INT_VECT CODE 0x0004
0004   2???           00008     GOTO IRQ
                      00009     
                      00010 ; Definizione variabili in memoria condivisa
                      00011 USER_VARIABLES  UDATA_SHR
0000                  00012 ReadChar    RES 1
0001                  00013 Temp        RES 1
0002                  00014 Counter     RES 1
                      00015             
                      00016 MAIN_PROG CODE
                      00017  
0000                  00018 IRQ
                      00019     ;Gestione interrupt da timer2
0000   1283 1303      00020     banksel PIR1
0002   1C8C           00021     btfss PIR1, TMR2IF
0003   0009           00022     retfie
                      00023     
0004   1283 1303      00024     banksel PORTC
0006   0987           00025     comf PORTC, 1
0007   1283 1303      00026     banksel PIR1
0009   108C           00027     bcf PIR1, TMR2IF
000A   0009           00028     retfie
                      00029     
                      00030 ;Setup I/O e EUSART
  0000                00031     global setup
000B                  00032 setup
                      00033     ;Imposta oscillatore interno a Fosc = 8 MHz
000B   1683 1303      00034     banksel OSCCON
000D   3075           00035     movlw 0x75
Message[302]: Register in operand not in bank 0.  Ensure that bank bits are correct.
000E   008F           00036     movwf OSCCON
000F   1683 1303      00037     banksel OSCTUNE
Message[302]: Register in operand not in bank 0.  Ensure that bank bits are correct.
0011   0190           00038     clrf OSCTUNE
                      00039     
                      00040     ;Imposta led D1,D2,D3,D4 come output
0012   1283 1303      00041     banksel PORTD
MPASM 5.68  /HOME/MATTEO/SCRIVANIA/PIC16-SER   12-15-2016  10:06:19         PAGE  2


LOC  OBJECT CODE     LINE SOURCE TEXT
  VALUE

0014   3000           00042     movlw 0x00
0015   0088           00043     movwf PORTD
0016   1683 1303      00044     banksel TRISD
0018   3000           00045     movlw 0x00
Message[302]: Register in operand not in bank 0.  Ensure that bank bits are correct.
0019   0088           00046     movwf TRISD
                      00047     
                      00048     ;Imposta pin buzzer come output
001A   1683 1303      00049     banksel TRISC
Message[302]: Register in operand not in bank 0.  Ensure that bank bits are correct.
001C   1107           00050     bcf TRISC, RC2
                      00051     
                      00052     ;Setup Timer2
001D   1283 1303      00053     banksel T2CON
001F   3002           00054     movlw 0x02                  ;1/16 prescaler
0020   0092           00055     movwf T2CON
0021   1283 1303      00056     banksel TMR2
0023   0191           00057     clrf TMR2                   ;azzera contatore
0024   1683 1303      00058     banksel PR2
0026   308E           00059     movlw D'142'
Message[302]: Register in operand not in bank 0.  Ensure that bank bits are correct.
0027   0092           00060     movwf PR2                   ;compara contatore con 142
0028   1683 1303      00061     banksel PIE1
Message[302]: Register in operand not in bank 0.  Ensure that bank bits are correct.
002A   148C           00062     bsf PIE1, TMR2IE            ;abilita interrupt 
                      00063     
                      00064     ;Setup EUSART
002B   1683 1303      00065     banksel TRISC
Message[302]: Register in operand not in bank 0.  Ensure that bank bits are correct.
002D   1307           00066     bcf TRISC, RC6              ;Set TX pin come output
Message[302]: Register in operand not in bank 0.  Ensure that bank bits are correct.
002E   1787           00067     bsf TRISC, RC7              ;Set RX pin come input
                      00068     
002F   1683 1303      00069     banksel TXSTA
Message[302]: Register in operand not in bank 0.  Ensure that bank bits are correct.
0031   1218           00070     bcf TXSTA,SYNC              ;utilizza EUSART in modalità asincrona
Message[302]: Register in operand not in bank 0.  Ensure that bank bits are correct.
0032   1518           00071     bsf TXSTA,BRGH              ;high baudrate
0033   1683 1703      00072     banksel BAUDCTL
Message[302]: Register in operand not in bank 0.  Ensure that bank bits are correct.
0035   1187           00073     bcf BAUDCTL,BRG16           ;registro baudrate a 8 bit
0036   1683 1303      00074     banksel SPBRG
0038   3033           00075     movlw D'51'                 ;Il valore di SPBRG è calcolato tramite la formula
Message[302]: Register in operand not in bank 0.  Ensure that bank bits are correct.
0039   0099           00076     movwf SPBRG                 ;SPBRG = Fosc/(16*baud) - 1
                      00077     
003A   1283 1303      00078     banksel RCSTA
003C   1618           00079     bsf RCSTA,CREN              ;abilita il circuito di ricezione
003D   1798           00080     bsf RCSTA,SPEN              ;abilita la periferica
                      00081     
003E   1283 1303      00082     banksel INTCON
0040   170B           00083     bsf INTCON,PEIE             ;abilita l'interrupt da periferica
0041   178B           00084     bsf INTCON,GIE              ;abilita gli interrupt generali
MPASM 5.68  /HOME/MATTEO/SCRIVANIA/PIC16-SER   12-15-2016  10:06:19         PAGE  3


LOC  OBJECT CODE     LINE SOURCE TEXT
  VALUE

                      00085     
0042   0008           00086     return
                      00087     
                      00088     
                      00089     
                      00090     
                      00091     
                      00092 ;Determina se il carattere in ReadChar è compreso tra ['0','9']
                      00093 ;ritorna ReadChar = 0xFF se falso, ReadChar = (ASCII -> num) se vero
  0000                00094     global is_digit
0043                  00095 is_digit
0043   3029           00096     movlw 0x29                  ;0x30 is '0' in ASCII
0044   01??           00097     clrf Temp                   
0045   02??           00098     subwf ReadChar, 0
0046   0D??           00099     rlf Temp, 1                 ;memorizza il precedente carry
0047   1C00           00100     btfss Temp, 0               ;se il carry è 1, il numero è >= '0'
0048   2???           00101     goto not_a_digit
                      00102     
0049   3040           00103     movlw 0x40                  ;0x39 is '9' in ASCII
004A   01??           00104     clrf Temp
004B   02??           00105     subwf ReadChar, 0           
004C   0D??           00106     rlf Temp, 1                 ;memorizza il precedente carry
004D   1800           00107     btfsc Temp, 0               ;se il carry è 0, il numero è > '9'
004E   2???           00108     goto not_a_digit
                      00109 
004F   3030           00110     movlw 0x30
0050   02??           00111     subwf ReadChar, 1           ;sottrae '0' per ottenere la cifra intera
0051   0008           00112     return
                      00113     
0052                  00114 not_a_digit
0052   30FF           00115     movlw 0xFF
0053   00??           00116     movwf ReadChar
0054   0008           00117     return
                      00118 
                      00119 
                      00120     
                      00121 ;Genera un ritardo di tanti millisecondi quanto è il valore
                      00122 ;di W al momento della chiamata. Funziona correttamente per Fosc 
                      00123 ;pari a 8 Mhz
  0000                00124     global delay_ms
0055                  00125 delay_ms
0055   00??           00126     movwf Temp                  
0056                  00127 loop
0056   0B??           00128     decfsz Temp, 1
0057   2???           00129     goto inner_loop_init
0058   0008           00130     return
0059                  00131 inner_loop_init
0059   30C8           00132     movlw 0xC8                      ;200
005A   00??           00133     movwf Counter
005B                  00134 inner_loop
005B   0B??           00135     decfsz Counter, 1
005C   2???           00136     goto nops
005D   2???           00137     goto loop
MPASM 5.68  /HOME/MATTEO/SCRIVANIA/PIC16-SER   12-15-2016  10:06:19         PAGE  4


LOC  OBJECT CODE     LINE SOURCE TEXT
  VALUE

005E                  00138 nops
005E   0000           00139     nop
005F   0000           00140     nop
0060   0000           00141     nop
0061   0000           00142     nop
0062   0000           00143     nop
0063   0000           00144     nop
0064   2???           00145     goto inner_loop
                      00146     
                      00147     
                      00148 ;Ciclo principale infinito
  0000                00149     global main_loop
0065                  00150 main_loop
0065   1283 1303      00151     banksel PIR1
0067   1E8C           00152     btfss PIR1, RCIF            ;Controlla se il buffer in lettura è pieno
0068   2???           00153     goto main_loop              ;Ritorna al main_loop se il buffer è vuoto
                      00154     
0069   1283 1303      00155     banksel RCREG
006B   081A           00156     movf RCREG, 0               ;Lettura EUSART rx buffer
006C   00??           00157     movwf ReadChar              ;Copia in ReadChar
                      00158     
006D   2???           00159     call is_digit               ;Traduzione da ASCII a numero intero
                      00160     
006E   1B80           00161     btfsc ReadChar, 7           ;Continua se ReadChar è un numero tra [0,9]
006F   2???           00162     goto main_loop
                      00163     
0070   1283 1303      00164     banksel PORTD
0072   08??           00165     movfw ReadChar
0073   0088           00166     movwf PORTD                 ;Mostra il numero sui led D1,D2,D3,D4
                      00167     
0074   1283 1303      00168     banksel RCSTA
0076   1218           00169     bcf RCSTA,CREN              ;disablita ricezione EUSART
                      00170     
                      00171     
0077   1283 1303      00172     banksel T2CON
0079   0A??           00173     incf ReadChar, 1            ;Incrementa per compensare decfsz
007A                  00174 beep_loop
007A   0B??           00175     decfsz ReadChar, 1
007B   2???           00176     goto beep_loop_begin
007C   2???           00177     goto beep_loop_end
                      00178     
007D                  00179 beep_loop_begin
007D   1512           00180     bsf T2CON, TMR2ON           ;abilita il timer
                      00181     
                      00182     ; Delay di un quarto secondo
007E   30FA           00183     movlw 0xFA
007F   2???           00184     call delay_ms
                      00185     
0080   1112           00186     bcf T2CON, TMR2ON           ;disabilita il timer
                      00187     
                      00188     ; Delay di un quarto secondo
0081   30FA           00189     movlw 0xFA
0082   2???           00190     call delay_ms
MPASM 5.68  /HOME/MATTEO/SCRIVANIA/PIC16-SER   12-15-2016  10:06:19         PAGE  5


LOC  OBJECT CODE     LINE SOURCE TEXT
  VALUE

                      00191     
0083   2???           00192     goto beep_loop          
                      00193     
0084                  00194 beep_loop_end
0084   1283 1303      00195     banksel RCSTA
0086   1618           00196     bsf RCSTA,CREN              ;riablita ricezione EUSART
                      00197     
0087   2???           00198     goto main_loop          
0088   0008           00199     return
                      00200     
                      00201     
                      00202  
                      00203     
                      00204 ; Starting point
0089                  00205 START
0089   2???           00206     call setup
008A   2???           00207     call main_loop
                      00208     END
MPASM 5.68  /HOME/MATTEO/SCRIVANIA/PIC16-SER   12-15-2016  10:06:19         PAGE  6


SYMBOL TABLE
  LABEL                             VALUE 

ABDEN                             00000000
ABDOVF                            00000007
ACKDT                             00000005
ACKEN                             00000004
ACKSTAT                           00000006
ADCON0                            0000001F
ADCON1                            0000009F
ADCS0                             00000006
ADCS1                             00000007
ADDEN                             00000003
ADFM                              00000007
ADIE                              00000006
ADIF                              00000006
ADON                              00000000
ADRESH                            0000001E
ADRESL                            0000009E
ANS0                              00000000
ANS1                              00000001
ANS10                             00000002
ANS11                             00000003
ANS12                             00000004
ANS13                             00000005
ANS2                              00000002
ANS3                              00000003
ANS4                              00000004
ANS5                              00000005
ANS6                              00000006
ANS7                              00000007
ANS8                              00000000
ANS9                              00000001
ANSEL                             00000188
ANSELH                            00000189
BAUDCTL                           00000187
BCLIE                             00000003
BCLIF                             00000003
BF                                00000000
BRG0                              00000000
BRG1                              00000001
BRG10                             00000002
BRG11                             00000003
BRG12                             00000004
BRG13                             00000005
BRG14                             00000006
BRG15                             00000007
BRG16                             00000003
BRG2                              00000002
BRG3                              00000003
BRG4                              00000004
BRG5                              00000005
BRG6                              00000006
BRG7                              00000007
BRG8                              00000000
BRG9                              00000001
MPASM 5.68  /HOME/MATTEO/SCRIVANIA/PIC16-SER   12-15-2016  10:06:19         PAGE  7


SYMBOL TABLE
  LABEL                             VALUE 

BRGH                              00000002
C                                 00000000
C1CH0                             00000000
C1CH1                             00000001
C1IE                              00000005
C1IF                              00000005
C1OE                              00000005
C1ON                              00000007
C1OUT                             00000006
C1POL                             00000004
C1R                               00000002
C1RSEL                            00000005
C1SEN                             00000005
C2CH0                             00000000
C2CH1                             00000001
C2IE                              00000006
C2IF                              00000006
C2OE                              00000005
C2ON                              00000007
C2OUT                             00000006
C2POL                             00000004
C2R                               00000002
C2REN                             00000004
C2RSEL                            00000004
C2SYNC                            00000000
CCP1CON                           00000017
CCP1IE                            00000002
CCP1IF                            00000002
CCP1M0                            00000000
CCP1M1                            00000001
CCP1M2                            00000002
CCP1M3                            00000003
CCP1X                             00000005
CCP1Y                             00000004
CCP2CON                           0000001D
CCP2IE                            00000000
CCP2IF                            00000000
CCP2M0                            00000000
CCP2M1                            00000001
CCP2M2                            00000002
CCP2M3                            00000003
CCP2X                             00000005
CCP2Y                             00000004
CCPR1                             00000015
CCPR1H                            00000016
CCPR1L                            00000015
CCPR2                             0000001B
CCPR2H                            0000001C
CCPR2L                            0000001B
CHS0                              00000002
CHS1                              00000003
CHS2                              00000004
CHS3                              00000005
MPASM 5.68  /HOME/MATTEO/SCRIVANIA/PIC16-SER   12-15-2016  10:06:19         PAGE  8


SYMBOL TABLE
  LABEL                             VALUE 

CKE                               00000006
CKP                               00000004
CM1CON0                           00000107
CM2CON0                           00000108
CM2CON1                           00000109
CREN                              00000004
CSRC                              00000007
Counter                           00000002
D                                 00000005
DATA_ADDRESS                      00000005
DC                                00000001
DC1B0                             00000004
DC1B1                             00000005
DC2B0                             00000004
DC2B1                             00000005
D_A                               00000005
D_NOT_A                           00000005
ECCPAS                            0000009C
ECCPAS0                           00000004
ECCPAS1                           00000005
ECCPAS2                           00000006
ECCPASE                           00000007
EEADR                             0000010D
EEADRH                            0000010F
EECON1                            0000018C
EECON2                            0000018D
EEDAT                             0000010C
EEDATA                            0000010C
EEDATH                            0000010E
EEIE                              00000004
EEIF                              00000004
EEPGD                             00000007
F                                 00000001
FERR                              00000002
FSR                               00000004
FVREN                             00000000
GCEN                              00000007
GIE                               00000007
GO                                00000001
GO_DONE                           00000001
GO_NOT_DONE                       00000001
HTS                               00000002
I2C_DATA                          00000005
I2C_READ                          00000002
I2C_START                         00000003
I2C_STOP                          00000004
INDF                              00000000
INTCON                            0000000B
INTE                              00000004
INTEDG                            00000006
INTF                              00000001
IOCB                              00000096
IOCB0                             00000000
MPASM 5.68  /HOME/MATTEO/SCRIVANIA/PIC16-SER   12-15-2016  10:06:19         PAGE  9


SYMBOL TABLE
  LABEL                             VALUE 

IOCB1                             00000001
IOCB2                             00000002
IOCB3                             00000003
IOCB4                             00000004
IOCB5                             00000005
IOCB6                             00000006
IOCB7                             00000007
IRCF0                             00000004
IRCF1                             00000005
IRCF2                             00000006
IRP                               00000007
IRQ                               00000000
LTS                               00000001
MC1OUT                            00000007
MC2OUT                            00000006
MSK                               00000093
MSK0                              00000000
MSK1                              00000001
MSK2                              00000002
MSK3                              00000003
MSK4                              00000004
MSK5                              00000005
MSK6                              00000006
MSK7                              00000007
NOT_A                             00000005
NOT_ADDRESS                       00000005
NOT_BO                            00000000
NOT_BOR                           00000000
NOT_DONE                          00000001
NOT_PD                            00000003
NOT_POR                           00000001
NOT_RBPU                          00000007
NOT_RC8                           00000006
NOT_T1SYNC                        00000002
NOT_TO                            00000004
NOT_TX8                           00000006
NOT_W                             00000002
NOT_WRITE                         00000002
OERR                              00000001
OPTION_REG                        00000081
OSCCON                            0000008F
OSCTUNE                           00000090
OSFIE                             00000007
OSFIF                             00000007
OSTS                              00000003
P                                 00000004
P1M0                              00000006
P1M1                              00000007
PCL                               00000002
PCLATH                            0000000A
PCON                              0000008E
PDC0                              00000000
PDC1                              00000001
MPASM 5.68  /HOME/MATTEO/SCRIVANIA/PIC16-SER   12-15-2016  10:06:19         PAGE 10


SYMBOL TABLE
  LABEL                             VALUE 

PDC2                              00000002
PDC3                              00000003
PDC4                              00000004
PDC5                              00000005
PDC6                              00000006
PEIE                              00000006
PEN                               00000002
PIE1                              0000008C
PIE2                              0000008D
PIR1                              0000000C
PIR2                              0000000D
PORTA                             00000005
PORTB                             00000006
PORTC                             00000007
PORTD                             00000008
PORTE                             00000009
PR2                               00000092
PRSEN                             00000007
PS0                               00000000
PS1                               00000001
PS2                               00000002
PSA                               00000003
PSSAC0                            00000002
PSSAC1                            00000003
PSSBD0                            00000000
PSSBD1                            00000001
PSTRCON                           0000009D
PULSR                             00000002
PULSS                             00000003
PWM1CON                           0000009B
R                                 00000002
RA0                               00000000
RA1                               00000001
RA2                               00000002
RA3                               00000003
RA4                               00000004
RA5                               00000005
RA6                               00000006
RA7                               00000007
RB0                               00000000
RB1                               00000001
RB2                               00000002
RB3                               00000003
RB4                               00000004
RB5                               00000005
RB6                               00000006
RB7                               00000007
RBIE                              00000003
RBIF                              00000000
RC0                               00000000
RC1                               00000001
RC2                               00000002
RC3                               00000003
MPASM 5.68  /HOME/MATTEO/SCRIVANIA/PIC16-SER   12-15-2016  10:06:19         PAGE 11


SYMBOL TABLE
  LABEL                             VALUE 

RC4                               00000004
RC5                               00000005
RC6                               00000006
RC7                               00000007
RC8_9                             00000006
RC9                               00000006
RCD8                              00000000
RCEN                              00000003
RCIDL                             00000006
RCIE                              00000005
RCIF                              00000005
RCREG                             0000001A
RCSTA                             00000018
RD                                00000000
RD0                               00000000
RD1                               00000001
RD2                               00000002
RD3                               00000003
RD4                               00000004
RD5                               00000005
RD6                               00000006
RD7                               00000007
RE0                               00000000
RE1                               00000001
RE2                               00000002
RE3                               00000003
READ_WRITE                        00000002
RP0                               00000005
RP1                               00000006
RSEN                              00000001
RX9                               00000006
RX9D                              00000000
R_NOT_W                           00000002
R_W                               00000002
ReadChar                          00000000
S                                 00000003
SBOREN                            00000004
SCKP                              00000004
SCS                               00000000
SEN                               00000000
SENDB                             00000003
SMP                               00000007
SPBRG                             00000099
SPBRGH                            0000009A
SPEN                              00000007
SR0                               00000006
SR1                               00000007
SRCON                             00000185
SREN                              00000005
SSPADD                            00000093
SSPBUF                            00000013
SSPCON                            00000014
SSPCON2                           00000091
MPASM 5.68  /HOME/MATTEO/SCRIVANIA/PIC16-SER   12-15-2016  10:06:19         PAGE 12


SYMBOL TABLE
  LABEL                             VALUE 

SSPEN                             00000005
SSPIE                             00000003
SSPIF                             00000003
SSPM0                             00000000
SSPM1                             00000001
SSPM2                             00000002
SSPM3                             00000003
SSPMSK                            00000093
SSPOV                             00000006
SSPSTAT                           00000094
START                             00000089
STATUS                            00000003
STRA                              00000000
STRB                              00000001
STRC                              00000002
STRD                              00000003
STRSYNC                           00000004
SWDTEN                            00000000
SYNC                              00000004
T0CS                              00000005
T0IE                              00000005
T0IF                              00000002
T0SE                              00000004
T1CKPS0                           00000004
T1CKPS1                           00000005
T1CON                             00000010
T1GINV                            00000007
T1GIV                             00000007
T1GSS                             00000001
T1INSYNC                          00000002
T1OSCEN                           00000003
T1SYNC                            00000002
T2CKPS0                           00000000
T2CKPS1                           00000001
T2CON                             00000012
TMR0                              00000001
TMR0IE                            00000005
TMR0IF                            00000002
TMR1                              0000000E
TMR1CS                            00000001
TMR1GE                            00000006
TMR1H                             0000000F
TMR1IE                            00000000
TMR1IF                            00000000
TMR1L                             0000000E
TMR1ON                            00000000
TMR2                              00000011
TMR2IE                            00000001
TMR2IF                            00000001
TMR2ON                            00000002
TOUTPS0                           00000003
TOUTPS1                           00000004
TOUTPS2                           00000005
MPASM 5.68  /HOME/MATTEO/SCRIVANIA/PIC16-SER   12-15-2016  10:06:19         PAGE 13


SYMBOL TABLE
  LABEL                             VALUE 

TOUTPS3                           00000006
TRISA                             00000085
TRISA0                            00000000
TRISA1                            00000001
TRISA2                            00000002
TRISA3                            00000003
TRISA4                            00000004
TRISA5                            00000005
TRISA6                            00000006
TRISA7                            00000007
TRISB                             00000086
TRISB0                            00000000
TRISB1                            00000001
TRISB2                            00000002
TRISB3                            00000003
TRISB4                            00000004
TRISB5                            00000005
TRISB6                            00000006
TRISB7                            00000007
TRISC                             00000087
TRISC0                            00000000
TRISC1                            00000001
TRISC2                            00000002
TRISC3                            00000003
TRISC4                            00000004
TRISC5                            00000005
TRISC6                            00000006
TRISC7                            00000007
TRISD                             00000088
TRISD0                            00000000
TRISD1                            00000001
TRISD2                            00000002
TRISD3                            00000003
TRISD4                            00000004
TRISD5                            00000005
TRISD6                            00000006
TRISD7                            00000007
TRISE                             00000089
TRISE0                            00000000
TRISE1                            00000001
TRISE2                            00000002
TRISE3                            00000003
TRMT                              00000001
TUN0                              00000000
TUN1                              00000001
TUN2                              00000002
TUN3                              00000003
TUN4                              00000004
TX8_9                             00000006
TX9                               00000006
TX9D                              00000000
TXD8                              00000000
TXEN                              00000005
MPASM 5.68  /HOME/MATTEO/SCRIVANIA/PIC16-SER   12-15-2016  10:06:19         PAGE 14


SYMBOL TABLE
  LABEL                             VALUE 

TXIE                              00000004
TXIF                              00000004
TXREG                             00000019
TXSTA                             00000098
Temp                              00000001
UA                                00000001
ULPWUE                            00000005
ULPWUIE                           00000002
ULPWUIF                           00000002
VCFG0                             00000004
VCFG1                             00000005
VR0                               00000000
VR1                               00000001
VR2                               00000002
VR3                               00000003
VRCON                             00000097
VREN                              00000007
VROE                              00000006
VRR                               00000005
VRSS                              00000004
W                                 00000000
WCOL                              00000007
WDTCON                            00000105
WDTPS0                            00000001
WDTPS1                            00000002
WDTPS2                            00000003
WDTPS3                            00000004
WPUB                              00000095
WPUB0                             00000000
WPUB1                             00000001
WPUB2                             00000002
WPUB3                             00000003
WPUB4                             00000004
WPUB5                             00000005
WPUB6                             00000006
WPUB7                             00000007
WR                                00000001
WREN                              00000002
WRERR                             00000003
WUE                               00000001
Z                                 00000002
_BOR21V                           00003EFF
_BOR40V                           00003FFF
_BOR4V_BOR21V                     00003EFF
_BOR4V_BOR40V                     00003FFF
_BOREN_NSLEEP                     00003EFF
_BOREN_OFF                        00003CFF
_BOREN_ON                         00003FFF
_BOREN_SBODEN                     00003DFF
_BOR_NSLEEP                       00003EFF
_BOR_OFF                          00003CFF
_BOR_ON                           00003FFF
_BOR_SBODEN                       00003DFF
MPASM 5.68  /HOME/MATTEO/SCRIVANIA/PIC16-SER   12-15-2016  10:06:19         PAGE 15


SYMBOL TABLE
  LABEL                             VALUE 

_CONFIG1                          00002007
_CONFIG2                          00002008
_CPD_OFF                          00003FFF
_CPD_ON                           00003F7F
_CP_OFF                           00003FFF
_CP_ON                            00003FBF
_DEBUG_OFF                        00003FFF
_DEBUG_ON                         00001FFF
_DEVID1                           00002006
_EC_OSC                           00003FFB
_EXTRC                            00003FFF
_EXTRCIO                          00003FFE
_EXTRC_OSC_CLKOUT                 00003FFF
_EXTRC_OSC_NOCLKOUT               00003FFE
_FCMEN_OFF                        000037FF
_FCMEN_ON                         00003FFF
_FOSC_EC                          00003FFB
_FOSC_EXTRC_CLKOUT                00003FFF
_FOSC_EXTRC_NOCLKOUT              00003FFE
_FOSC_HS                          00003FFA
_FOSC_INTRC_CLKOUT                00003FFD
_FOSC_INTRC_NOCLKOUT              00003FFC
_FOSC_LP                          00003FF8
_FOSC_XT                          00003FF9
_HS_OSC                           00003FFA
_IDLOC0                           00002000
_IDLOC1                           00002001
_IDLOC2                           00002002
_IDLOC3                           00002003
_IESO_OFF                         00003BFF
_IESO_ON                          00003FFF
_INTOSC                           00003FFD
_INTOSCIO                         00003FFC
_INTRC_OSC_CLKOUT                 00003FFD
_INTRC_OSC_NOCLKOUT               00003FFC
_LP_OSC                           00003FF8
_LVP_OFF                          00002FFF
_LVP_ON                           00003FFF
_MCLRE_OFF                        00003FDF
_MCLRE_ON                         00003FFF
_PWRTE_OFF                        00003FFF
_PWRTE_ON                         00003FEF
_WDTE_OFF                         00003FF7
_WDTE_ON                          00003FFF
_WDT_OFF                          00003FF7
_WDT_ON                           00003FFF
_WRT_1FOURTH                      00003BFF
_WRT_256                          00003DFF
_WRT_HALF                         000039FF
_WRT_OFF                          00003FFF
_XT_OSC                           00003FF9
__16F887                          00000001
beep_loop                         0000007A
MPASM 5.68  /HOME/MATTEO/SCRIVANIA/PIC16-SER   12-15-2016  10:06:19         PAGE 16


SYMBOL TABLE
  LABEL                             VALUE 

beep_loop_begin                   0000007D
beep_loop_end                     00000084
delay_ms                          00000055
inner_loop                        0000005B
inner_loop_init                   00000059
is_digit                          00000043
loop                              00000056
main_loop                         00000065
nops                              0000005E
not_a_digit                       00000052
setup                             0000000B

Errors   :     0
Warnings :     0 reported,     0 suppressed
Messages :    12 reported,     0 suppressed

